; ModuleID = '38/250.c'
source_filename = "38/250.c"
target datalayout = "e-m:e-p270:32:32-p271:32:32-p272:64:64-i64:64-f80:128-n8:16:32:64-S128"
target triple = "x86_64-pc-linux-gnu"

@.str = private unnamed_addr constant [3 x i8] c"%d\00", align 1
@.str.1 = private unnamed_addr constant [4 x i8] c"%lf\00", align 1
@.str.2 = private unnamed_addr constant [7 x i8] c"%.5lf\0A\00", align 1

; Function Attrs: noinline nounwind uwtable
define dso_local i32 @main() #0 {
  %1 = alloca i32, align 4
  %2 = alloca i32, align 4
  %3 = alloca i32, align 4
  %4 = alloca i32, align 4
  %5 = alloca i32, align 4
  %6 = alloca [101 x double], align 16
  %7 = alloca double, align 8
  %8 = alloca double, align 8
  %9 = alloca double, align 8
  %10 = alloca double*, align 8
  store i32 0, i32* %1, align 4
  %11 = call i32 (i8*, ...) @__isoc99_scanf(i8* getelementptr inbounds ([3 x i8], [3 x i8]* @.str, i64 0, i64 0), i32* %5)
  store i32 0, i32* %3, align 4
  br label %12

12:                                               ; preds = %75, %0
  %13 = load i32, i32* %3, align 4
  %14 = load i32, i32* %5, align 4
  %15 = icmp slt i32 %13, %14
  br i1 %15, label %16, label %78

16:                                               ; preds = %12
  %17 = call i32 (i8*, ...) @__isoc99_scanf(i8* getelementptr inbounds ([3 x i8], [3 x i8]* @.str, i64 0, i64 0), i32* %4)
  store double 0.000000e+00, double* %9, align 8
  store i32 0, i32* %2, align 4
  br label %18

18:                                               ; preds = %33, %16
  %19 = load i32, i32* %2, align 4
  %20 = load i32, i32* %4, align 4
  %21 = icmp slt i32 %19, %20
  br i1 %21, label %22, label %36

22:                                               ; preds = %18
  %23 = load i32, i32* %2, align 4
  %24 = sext i32 %23 to i64
  %25 = getelementptr inbounds [101 x double], [101 x double]* %6, i64 0, i64 %24
  %26 = call i32 (i8*, ...) @__isoc99_scanf(i8* getelementptr inbounds ([4 x i8], [4 x i8]* @.str.1, i64 0, i64 0), double* %25)
  %27 = load i32, i32* %2, align 4
  %28 = sext i32 %27 to i64
  %29 = getelementptr inbounds [101 x double], [101 x double]* %6, i64 0, i64 %28
  %30 = load double, double* %29, align 8
  %31 = load double, double* %9, align 8
  %32 = fadd double %31, %30
  store double %32, double* %9, align 8
  br label %33

33:                                               ; preds = %22
  %34 = load i32, i32* %2, align 4
  %35 = add nsw i32 %34, 1
  store i32 %35, i32* %2, align 4
  br label %18

36:                                               ; preds = %18
  %37 = load double, double* %9, align 8
  %38 = load i32, i32* %4, align 4
  %39 = sitofp i32 %38 to double
  %40 = fdiv double %37, %39
  store double %40, double* %7, align 8
  store double 0.000000e+00, double* %9, align 8
  %41 = getelementptr inbounds [101 x double], [101 x double]* %6, i64 0, i64 0
  store double* %41, double** %10, align 8
  store i32 0, i32* %2, align 4
  br label %42

42:                                               ; preds = %64, %36
  %43 = load i32, i32* %2, align 4
  %44 = load i32, i32* %4, align 4
  %45 = icmp slt i32 %43, %44
  br i1 %45, label %46, label %67

46:                                               ; preds = %42
  %47 = load double*, double** %10, align 8
  %48 = load i32, i32* %2, align 4
  %49 = sext i32 %48 to i64
  %50 = getelementptr inbounds double, double* %47, i64 %49
  %51 = load double, double* %50, align 8
  %52 = load double, double* %7, align 8
  %53 = fsub double %51, %52
  %54 = load double*, double** %10, align 8
  %55 = load i32, i32* %2, align 4
  %56 = sext i32 %55 to i64
  %57 = getelementptr inbounds double, double* %54, i64 %56
  %58 = load double, double* %57, align 8
  %59 = load double, double* %7, align 8
  %60 = fsub double %58, %59
  %61 = fmul double %53, %60
  %62 = load double, double* %9, align 8
  %63 = fadd double %62, %61
  store double %63, double* %9, align 8
  br label %64

64:                                               ; preds = %46
  %65 = load i32, i32* %2, align 4
  %66 = add nsw i32 %65, 1
  store i32 %66, i32* %2, align 4
  br label %42

67:                                               ; preds = %42
  %68 = load double, double* %9, align 8
  %69 = load i32, i32* %4, align 4
  %70 = sitofp i32 %69 to double
  %71 = fdiv double %68, %70
  %72 = call double @sqrt(double %71) #3
  store double %72, double* %8, align 8
  %73 = load double, double* %8, align 8
  %74 = call i32 (i8*, ...) @printf(i8* getelementptr inbounds ([7 x i8], [7 x i8]* @.str.2, i64 0, i64 0), double %73)
  br label %75

75:                                               ; preds = %67
  %76 = load i32, i32* %3, align 4
  %77 = add nsw i32 %76, 1
  store i32 %77, i32* %3, align 4
  br label %12

78:                                               ; preds = %12
  %79 = load i32, i32* %1, align 4
  ret i32 %79
}

declare dso_local i32 @__isoc99_scanf(i8*, ...) #1

; Function Attrs: nounwind
declare dso_local double @sqrt(double) #2

declare dso_local i32 @printf(i8*, ...) #1


!llvm.module.flags = !{!0}
!llvm.ident = !{!1}

!0 = !{i32 1, !"wchar_size", i32 4}
!1 = !{!"clang version 10.0.0-4ubuntu1 "}
